; ModuleID = '57/1009.c'
source_filename = "57/1009.c"
target datalayout = "e-m:e-p270:32:32-p271:32:32-p272:64:64-i64:64-f80:128-n8:16:32:64-S128"
target triple = "x86_64-pc-linux-gnu"

@.str = private unnamed_addr constant [3 x i8] c"%d\00", align 1
@.str.1 = private unnamed_addr constant [3 x i8] c"%s\00", align 1
@.str.2 = private unnamed_addr constant [4 x i8] c"%s\0A\00", align 1

; Function Attrs: noinline nounwind uwtable
define dso_local i32 @main() #0 {
  %1 = alloca i32, align 4
  %2 = alloca i32, align 4
  %3 = alloca [33 x i8], align 16
  %4 = alloca i32, align 4
  %5 = alloca i32, align 4
  %6 = alloca i32, align 4
  %7 = alloca i32, align 4
  store i32 0, i32* %1, align 4
  %8 = call i32 (i8*, ...) @__isoc99_scanf(i8* getelementptr inbounds ([3 x i8], [3 x i8]* @.str, i64 0, i64 0), i32* %2)
  store i32 0, i32* %5, align 4
  br label %9

9:                                                ; preds = %63, %0
  %10 = load i32, i32* %5, align 4
  %11 = load i32, i32* %2, align 4
  %12 = icmp slt i32 %10, %11
  br i1 %12, label %13, label %66

13:                                               ; preds = %9
  %14 = getelementptr inbounds [33 x i8], [33 x i8]* %3, i64 0, i64 0
  %15 = call i32 (i8*, ...) @__isoc99_scanf(i8* getelementptr inbounds ([3 x i8], [3 x i8]* @.str.1, i64 0, i64 0), i8* %14)
  %16 = getelementptr inbounds [33 x i8], [33 x i8]* %3, i64 0, i64 0
  %17 = call i64 @strlen(i8* %16) #3
  %18 = trunc i64 %17 to i32
  store i32 %18, i32* %4, align 4
  %19 = load i32, i32* %4, align 4
  %20 = sub nsw i32 %19, 2
  %21 = sext i32 %20 to i64
  %22 = getelementptr inbounds [33 x i8], [33 x i8]* %3, i64 0, i64 %21
  %23 = load i8, i8* %22, align 1
  %24 = sext i8 %23 to i32
  %25 = icmp eq i32 %24, 101
  br i1 %25, label %26, label %34

26:                                               ; preds = %13
  %27 = load i32, i32* %4, align 4
  %28 = sub nsw i32 %27, 1
  %29 = sext i32 %28 to i64
  %30 = getelementptr inbounds [33 x i8], [33 x i8]* %3, i64 0, i64 %29
  %31 = load i8, i8* %30, align 1
  %32 = sext i8 %31 to i32
  %33 = icmp eq i32 %32, 114
  br i1 %33, label %50, label %34

34:                                               ; preds = %26, %13
  %35 = load i32, i32* %4, align 4
  %36 = sub nsw i32 %35, 2
  %37 = sext i32 %36 to i64
  %38 = getelementptr inbounds [33 x i8], [33 x i8]* %3, i64 0, i64 %37
  %39 = load i8, i8* %38, align 1
  %40 = sext i8 %39 to i32
  %41 = icmp eq i32 %40, 108
  br i1 %41, label %42, label %55

42:                                               ; preds = %34
  %43 = load i32, i32* %4, align 4
  %44 = sub nsw i32 %43, 1
  %45 = sext i32 %44 to i64
  %46 = getelementptr inbounds [33 x i8], [33 x i8]* %3, i64 0, i64 %45
  %47 = load i8, i8* %46, align 1
  %48 = sext i8 %47 to i32
  %49 = icmp eq i32 %48, 121
  br i1 %49, label %50, label %55

50:                                               ; preds = %42, %26
  %51 = load i32, i32* %4, align 4
  %52 = sub nsw i32 %51, 2
  %53 = sext i32 %52 to i64
  %54 = getelementptr inbounds [33 x i8], [33 x i8]* %3, i64 0, i64 %53
  store i8 0, i8* %54, align 1
  br label %60

55:                                               ; preds = %42, %34
  %56 = load i32, i32* %4, align 4
  %57 = sub nsw i32 %56, 3
  %58 = sext i32 %57 to i64
  %59 = getelementptr inbounds [33 x i8], [33 x i8]* %3, i64 0, i64 %58
  store i8 0, i8* %59, align 1
  br label %60

60:                                               ; preds = %55, %50
  %61 = getelementptr inbounds [33 x i8], [33 x i8]* %3, i64 0, i64 0
  %62 = call i32 (i8*, ...) @printf(i8* getelementptr inbounds ([4 x i8], [4 x i8]* @.str.2, i64 0, i64 0), i8* %61)
  br label %63

63:                                               ; preds = %60
  %64 = load i32, i32* %5, align 4
  %65 = add nsw i32 %64, 1
  store i32 %65, i32* %5, align 4
  br label %9

66:                                               ; preds = %9
  ret i32 0
}

declare dso_local i32 @__isoc99_scanf(i8*, ...) #1

; Function Attrs: nounwind readonly
declare dso_local i64 @strlen(i8*) #2

declare dso_local i32 @printf(i8*, ...) #1


!llvm.module.flags = !{!0}
!llvm.ident = !{!1}

!0 = !{i32 1, !"wchar_size", i32 4}
!1 = !{!"clang version 10.0.0-4ubuntu1 "}
